; Function Attrs: mustprogress nofree norecurse nosync nounwind willreturn memory(argmem: readwrite) uwtable
define noundef double @_ZN5faiss25SplitMix64RandomGenerator11rand_doubleEv(ptr noundef nonnull align 8 captures(none) dereferenceable(8) %0) local_unnamed_addr #4 align 2 {
  %2 = load i64, ptr %0, align 8, !tbaa !14
  %3 = add i64 %2, -7046029254386353131
  store i64 %3, ptr %0, align 8, !tbaa !14
  %4 = lshr i64 %3, 30
  %5 = xor i64 %4, %3
  %6 = mul i64 %5, -4658895280553007687
  %7 = lshr i64 %6, 27
  %8 = xor i64 %7, %6
  %9 = mul i64 %8, -7723592293110705685
  %10 = lshr i64 %9, 31
  %11 = xor i64 %10, %9
  %12 = uitofp i64 %11 to double
  %13 = fmul double %12, 0x3BF0000000000000
  ret double %13
}